target datalayout = "e-m:e-p270:32:32-p271:32:32-p272:64:64-i64:64-i128:128-f80:128-n8:16:32:64-S128"
target triple = "x86_64-pc-linux-gnu"

; Function Attrs: nounwind uwtable
define internal void @init_multbl2(ptr noundef %0, ptr noundef %1, ptr noundef %2, ptr noundef %3, ptr noundef %4) #0 {
  %6 = alloca ptr, align 8
  %7 = alloca ptr, align 8
  %8 = alloca ptr, align 8
  %9 = alloca ptr, align 8
  %10 = alloca ptr, align 8
  %11 = alloca i32, align 4
  %12 = alloca i32, align 4
  %13 = alloca i32, align 4
  %14 = alloca i32, align 4
  %15 = alloca i32, align 4
  %16 = alloca i32, align 4
  store ptr %0, ptr %6, align 8, !tbaa !31
  store ptr %1, ptr %7, align 8, !tbaa !31
  store ptr %2, ptr %8, align 8, !tbaa !9
  store ptr %3, ptr %9, align 8, !tbaa !9
  store ptr %4, ptr %10, align 8, !tbaa !9
  call void @llvm.lifetime.start.p0(i64 4, ptr %11) #6
  store i32 0, ptr %11, align 4, !tbaa !11
  br label %17

17:                                               ; preds = %172, %5
  %18 = load i32, ptr %11, align 4, !tbaa !11
  %19 = icmp slt i32 %18, 256
  br i1 %19, label %20, label %175

20:                                               ; preds = %17
  call void @llvm.lifetime.start.p0(i64 4, ptr %12) #6
  %21 = load ptr, ptr %10, align 8, !tbaa !9
  %22 = load i32, ptr %11, align 4, !tbaa !11
  %23 = sext i32 %22 to i64
  %24 = getelementptr inbounds i8, ptr %21, i64 %23
  %25 = load i8, ptr %24, align 1, !tbaa !16
  %26 = zext i8 %25 to i32
  store i32 %26, ptr %12, align 4, !tbaa !11
  %27 = load i32, ptr %12, align 4, !tbaa !11
  %28 = icmp ne i32 %27, 0
  br i1 %28, label %29, label %171

29:                                               ; preds = %20
  call void @llvm.lifetime.start.p0(i64 4, ptr %13) #6
  call void @llvm.lifetime.start.p0(i64 4, ptr %14) #6
  call void @llvm.lifetime.start.p0(i64 4, ptr %15) #6
  call void @llvm.lifetime.start.p0(i64 4, ptr %16) #6
  %30 = load ptr, ptr %8, align 8, !tbaa !9
  %31 = load i32, ptr %12, align 4, !tbaa !11
  %32 = sext i32 %31 to i64
  %33 = getelementptr inbounds i8, ptr %30, i64 %32
  %34 = load i8, ptr %33, align 1, !tbaa !16
  %35 = zext i8 %34 to i32
  store i32 %35, ptr %12, align 4, !tbaa !11
  %36 = load ptr, ptr %9, align 8, !tbaa !9
  %37 = load i32, ptr %12, align 4, !tbaa !11
  %38 = load ptr, ptr %8, align 8, !tbaa !9
  %39 = load ptr, ptr %7, align 8, !tbaa !31
  %40 = getelementptr inbounds i32, ptr %39, i64 0
  %41 = load i32, ptr %40, align 4, !tbaa !11
  %42 = sext i32 %41 to i64
  %43 = getelementptr inbounds i8, ptr %38, i64 %42
  %44 = load i8, ptr %43, align 1, !tbaa !16
  %45 = zext i8 %44 to i32
  %46 = add nsw i32 %37, %45
  %47 = sext i32 %46 to i64
  %48 = getelementptr inbounds i8, ptr %36, i64 %47
  %49 = load i8, ptr %48, align 1, !tbaa !16
  %50 = zext i8 %49 to i32
  store i32 %50, ptr %13, align 4, !tbaa !11
  %51 = load ptr, ptr %9, align 8, !tbaa !9
  %52 = load i32, ptr %12, align 4, !tbaa !11
  %53 = load ptr, ptr %8, align 8, !tbaa !9
  %54 = load ptr, ptr %7, align 8, !tbaa !31
  %55 = getelementptr inbounds i32, ptr %54, i64 1
  %56 = load i32, ptr %55, align 4, !tbaa !11
  %57 = sext i32 %56 to i64
  %58 = getelementptr inbounds i8, ptr %53, i64 %57
  %59 = load i8, ptr %58, align 1, !tbaa !16
  %60 = zext i8 %59 to i32
  %61 = add nsw i32 %52, %60
  %62 = sext i32 %61 to i64
  %63 = getelementptr inbounds i8, ptr %51, i64 %62
  %64 = load i8, ptr %63, align 1, !tbaa !16
  %65 = zext i8 %64 to i32
  store i32 %65, ptr %14, align 4, !tbaa !11
  %66 = load ptr, ptr %9, align 8, !tbaa !9
  %67 = load i32, ptr %12, align 4, !tbaa !11
  %68 = load ptr, ptr %8, align 8, !tbaa !9
  %69 = load ptr, ptr %7, align 8, !tbaa !31
  %70 = getelementptr inbounds i32, ptr %69, i64 2
  %71 = load i32, ptr %70, align 4, !tbaa !11
  %72 = sext i32 %71 to i64
  %73 = getelementptr inbounds i8, ptr %68, i64 %72
  %74 = load i8, ptr %73, align 1, !tbaa !16
  %75 = zext i8 %74 to i32
  %76 = add nsw i32 %67, %75
  %77 = sext i32 %76 to i64
  %78 = getelementptr inbounds i8, ptr %66, i64 %77
  %79 = load i8, ptr %78, align 1, !tbaa !16
  %80 = zext i8 %79 to i32
  store i32 %80, ptr %15, align 4, !tbaa !11
  %81 = load ptr, ptr %9, align 8, !tbaa !9
  %82 = load i32, ptr %12, align 4, !tbaa !11
  %83 = load ptr, ptr %8, align 8, !tbaa !9
  %84 = load ptr, ptr %7, align 8, !tbaa !31
  %85 = getelementptr inbounds i32, ptr %84, i64 3
  %86 = load i32, ptr %85, align 4, !tbaa !11
  %87 = sext i32 %86 to i64
  %88 = getelementptr inbounds i8, ptr %83, i64 %87
  %89 = load i8, ptr %88, align 1, !tbaa !16
  %90 = zext i8 %89 to i32
  %91 = add nsw i32 %82, %90
  %92 = sext i32 %91 to i64
  %93 = getelementptr inbounds i8, ptr %81, i64 %92
  %94 = load i8, ptr %93, align 1, !tbaa !16
  %95 = zext i8 %94 to i32
  store i32 %95, ptr %16, align 4, !tbaa !11
  %96 = load i32, ptr %13, align 4, !tbaa !11
  %97 = load i32, ptr %14, align 4, !tbaa !11
  %98 = shl i32 %97, 8
  %99 = or i32 %96, %98
  %100 = load i32, ptr %15, align 4, !tbaa !11
  %101 = shl i32 %100, 16
  %102 = or i32 %99, %101
  %103 = load i32, ptr %16, align 4, !tbaa !11
  %104 = shl i32 %103, 24
  %105 = or i32 %102, %104
  %106 = load ptr, ptr %6, align 8, !tbaa !31
  %107 = getelementptr inbounds [256 x i32], ptr %106, i64 0
  %108 = load i32, ptr %11, align 4, !tbaa !11
  %109 = sext i32 %108 to i64
  %110 = getelementptr inbounds [256 x i32], ptr %107, i64 0, i64 %109
  store i32 %105, ptr %110, align 4, !tbaa !11
  %111 = load ptr, ptr %6, align 8, !tbaa !31
  %112 = getelementptr inbounds [256 x i32], ptr %111, i64 0
  %113 = load i32, ptr %11, align 4, !tbaa !11
  %114 = sext i32 %113 to i64
  %115 = getelementptr inbounds [256 x i32], ptr %112, i64 0, i64 %114
  %116 = load i32, ptr %115, align 4, !tbaa !11
  %117 = shl i32 %116, 8
  %118 = load ptr, ptr %6, align 8, !tbaa !31
  %119 = getelementptr inbounds [256 x i32], ptr %118, i64 0
  %120 = load i32, ptr %11, align 4, !tbaa !11
  %121 = sext i32 %120 to i64
  %122 = getelementptr inbounds [256 x i32], ptr %119, i64 0, i64 %121
  %123 = load i32, ptr %122, align 4, !tbaa !11
  %124 = lshr i32 %123, 24
  %125 = or i32 %117, %124
  %126 = load ptr, ptr %6, align 8, !tbaa !31
  %127 = getelementptr inbounds [256 x i32], ptr %126, i64 1
  %128 = load i32, ptr %11, align 4, !tbaa !11
  %129 = sext i32 %128 to i64
  %130 = getelementptr inbounds [256 x i32], ptr %127, i64 0, i64 %129
  store i32 %125, ptr %130, align 4, !tbaa !11
  %131 = load ptr, ptr %6, align 8, !tbaa !31
  %132 = getelementptr inbounds [256 x i32], ptr %131, i64 0
  %133 = load i32, ptr %11, align 4, !tbaa !11
  %134 = sext i32 %133 to i64
  %135 = getelementptr inbounds [256 x i32], ptr %132, i64 0, i64 %134
  %136 = load i32, ptr %135, align 4, !tbaa !11
  %137 = shl i32 %136, 16
  %138 = load ptr, ptr %6, align 8, !tbaa !31
  %139 = getelementptr inbounds [256 x i32], ptr %138, i64 0
  %140 = load i32, ptr %11, align 4, !tbaa !11
  %141 = sext i32 %140 to i64
  %142 = getelementptr inbounds [256 x i32], ptr %139, i64 0, i64 %141
  %143 = load i32, ptr %142, align 4, !tbaa !11
  %144 = lshr i32 %143, 16
  %145 = or i32 %137, %144
  %146 = load ptr, ptr %6, align 8, !tbaa !31
  %147 = getelementptr inbounds [256 x i32], ptr %146, i64 2
  %148 = load i32, ptr %11, align 4, !tbaa !11
  %149 = sext i32 %148 to i64
  %150 = getelementptr inbounds [256 x i32], ptr %147, i64 0, i64 %149
  store i32 %145, ptr %150, align 4, !tbaa !11
  %151 = load ptr, ptr %6, align 8, !tbaa !31
  %152 = getelementptr inbounds [256 x i32], ptr %151, i64 0
  %153 = load i32, ptr %11, align 4, !tbaa !11
  %154 = sext i32 %153 to i64
  %155 = getelementptr inbounds [256 x i32], ptr %152, i64 0, i64 %154
  %156 = load i32, ptr %155, align 4, !tbaa !11
  %157 = shl i32 %156, 24
  %158 = load ptr, ptr %6, align 8, !tbaa !31
  %159 = getelementptr inbounds [256 x i32], ptr %158, i64 0
  %160 = load i32, ptr %11, align 4, !tbaa !11
  %161 = sext i32 %160 to i64
  %162 = getelementptr inbounds [256 x i32], ptr %159, i64 0, i64 %161
  %163 = load i32, ptr %162, align 4, !tbaa !11
  %164 = lshr i32 %163, 8
  %165 = or i32 %157, %164
  %166 = load ptr, ptr %6, align 8, !tbaa !31
  %167 = getelementptr inbounds [256 x i32], ptr %166, i64 3
  %168 = load i32, ptr %11, align 4, !tbaa !11
  %169 = sext i32 %168 to i64
  %170 = getelementptr inbounds [256 x i32], ptr %167, i64 0, i64 %169
  store i32 %165, ptr %170, align 4, !tbaa !11
  call void @llvm.lifetime.end.p0(i64 4, ptr %16) #6
  call void @llvm.lifetime.end.p0(i64 4, ptr %15) #6
  call void @llvm.lifetime.end.p0(i64 4, ptr %14) #6
  call void @llvm.lifetime.end.p0(i64 4, ptr %13) #6
  br label %171

171:                                              ; preds = %29, %20
  call void @llvm.lifetime.end.p0(i64 4, ptr %12) #6
  br label %172

172:                                              ; preds = %171
  %173 = load i32, ptr %11, align 4, !tbaa !11
  %174 = add nsw i32 %173, 1
  store i32 %174, ptr %11, align 4, !tbaa !11
  br label %17, !llvm.loop !34

175:                                              ; preds = %17
  call void @llvm.lifetime.end.p0(i64 4, ptr %11) #6
  ret void
}