; Function Attrs: nofree norecurse nosync nounwind memory(argmem: readwrite) uwtable
define internal fastcc void @init_multbl2(ptr noundef writeonly captures(none) %0, ptr noundef nonnull readonly captures(none) %1, ptr noundef nonnull readonly captures(none) %2, ptr noundef nonnull readonly captures(none) %3, ptr noundef readonly captures(none) %4) unnamed_addr #7 {
  %6 = getelementptr inbounds nuw i8, ptr %1, i64 4
  %7 = getelementptr inbounds nuw i8, ptr %1, i64 8
  %8 = getelementptr inbounds nuw i8, ptr %1, i64 12
  %9 = getelementptr inbounds nuw i8, ptr %0, i64 1024
  %10 = getelementptr inbounds nuw i8, ptr %0, i64 2048
  %11 = getelementptr inbounds nuw i8, ptr %0, i64 3072
  br label %12

12:                                               ; preds = %5, %74
  %indvars.iv = phi i64 [ 0, %5 ], [ %indvars.iv.next, %74 ]
  %13 = getelementptr inbounds nuw i8, ptr %4, i64 %indvars.iv
  %14 = load i8, ptr %13, align 1, !tbaa !11
  %.not = icmp eq i8 %14, 0
  br i1 %.not, label %74, label %15

15:                                               ; preds = %12
  %16 = zext i8 %14 to i64
  %17 = getelementptr inbounds nuw i8, ptr %2, i64 %16
  %18 = load i8, ptr %17, align 1, !tbaa !11
  %19 = zext i8 %18 to i32
  %20 = load i32, ptr %1, align 4, !tbaa !18
  %21 = sext i32 %20 to i64
  %22 = getelementptr inbounds i8, ptr %2, i64 %21
  %23 = load i8, ptr %22, align 1, !tbaa !11
  %24 = zext i8 %23 to i32
  %25 = add nuw nsw i32 %24, %19
  %26 = zext nneg i32 %25 to i64
  %27 = getelementptr inbounds nuw i8, ptr %3, i64 %26
  %28 = load i8, ptr %27, align 1, !tbaa !11
  %29 = zext i8 %28 to i32
  %30 = load i32, ptr %6, align 4, !tbaa !18
  %31 = sext i32 %30 to i64
  %32 = getelementptr inbounds i8, ptr %2, i64 %31
  %33 = load i8, ptr %32, align 1, !tbaa !11
  %34 = zext i8 %33 to i32
  %35 = add nuw nsw i32 %34, %19
  %36 = zext nneg i32 %35 to i64
  %37 = getelementptr inbounds nuw i8, ptr %3, i64 %36
  %38 = load i8, ptr %37, align 1, !tbaa !11
  %39 = zext i8 %38 to i32
  %40 = load i32, ptr %7, align 4, !tbaa !18
  %41 = sext i32 %40 to i64
  %42 = getelementptr inbounds i8, ptr %2, i64 %41
  %43 = load i8, ptr %42, align 1, !tbaa !11
  %44 = zext i8 %43 to i32
  %45 = add nuw nsw i32 %44, %19
  %46 = zext nneg i32 %45 to i64
  %47 = getelementptr inbounds nuw i8, ptr %3, i64 %46
  %48 = load i8, ptr %47, align 1, !tbaa !11
  %49 = zext i8 %48 to i32
  %50 = load i32, ptr %8, align 4, !tbaa !18
  %51 = sext i32 %50 to i64
  %52 = getelementptr inbounds i8, ptr %2, i64 %51
  %53 = load i8, ptr %52, align 1, !tbaa !11
  %54 = zext i8 %53 to i32
  %55 = add nuw nsw i32 %54, %19
  %56 = zext nneg i32 %55 to i64
  %57 = getelementptr inbounds nuw i8, ptr %3, i64 %56
  %58 = load i8, ptr %57, align 1, !tbaa !11
  %59 = zext i8 %58 to i32
  %60 = shl nuw nsw i32 %39, 8
  %61 = or disjoint i32 %60, %29
  %62 = shl nuw nsw i32 %49, 16
  %63 = or disjoint i32 %61, %62
  %64 = shl nuw i32 %59, 24
  %65 = or disjoint i32 %64, %63
  %66 = getelementptr inbounds nuw [256 x i32], ptr %0, i64 0, i64 %indvars.iv
  store i32 %65, ptr %66, align 4, !tbaa !18
  %67 = shl nuw i32 %63, 8
  %68 = or disjoint i32 %67, %59
  %69 = getelementptr inbounds nuw [256 x i32], ptr %9, i64 0, i64 %indvars.iv
  store i32 %68, ptr %69, align 4, !tbaa !18
  %70 = tail call i32 @llvm.fshl.i32(i32 %65, i32 %65, i32 16)
  %71 = getelementptr inbounds nuw [256 x i32], ptr %10, i64 0, i64 %indvars.iv
  store i32 %70, ptr %71, align 4, !tbaa !18
  %72 = tail call i32 @llvm.fshl.i32(i32 %65, i32 %65, i32 24)
  %73 = getelementptr inbounds nuw [256 x i32], ptr %11, i64 0, i64 %indvars.iv
  store i32 %72, ptr %73, align 4, !tbaa !18
  br label %74

74:                                               ; preds = %15, %12
  %indvars.iv.next = add nuw nsw i64 %indvars.iv, 1
  %exitcond.not = icmp eq i64 %indvars.iv.next, 256
  br i1 %exitcond.not, label %75, label %12, !llvm.loop !27

75:                                               ; preds = %74
  ret void
}